target datalayout = "e-m:e-p270:32:32-p271:32:32-p272:64:64-i64:64-i128:128-f80:128-n8:16:32:64-S128"
target triple = "x86_64-pc-linux-gnu"

%"struct.Luau::CodeGen::IrOp" = type { i32 }

; Function Attrs: mustprogress uwtable
define dso_local void @_ZN4Luau7CodeGen19translateInstJumpIfERNS0_9IrBuilderEPKjib(ptr noundef nonnull align 8 dereferenceable(752) %0, ptr noundef %1, i32 noundef %2, i1 noundef zeroext %3) #0 {
  %5 = alloca ptr, align 8
  %6 = alloca ptr, align 8
  %7 = alloca i32, align 4
  %8 = alloca i8, align 1
  %9 = alloca i32, align 4
  %10 = alloca %"struct.Luau::CodeGen::IrOp", align 4
  %11 = alloca %"struct.Luau::CodeGen::IrOp", align 4
  %12 = alloca %"struct.Luau::CodeGen::IrOp", align 4
  %13 = alloca %"struct.Luau::CodeGen::IrOp", align 4
  %14 = alloca %"struct.Luau::CodeGen::IrOp", align 4
  %15 = alloca %"struct.Luau::CodeGen::IrOp", align 4
  %16 = alloca %"struct.Luau::CodeGen::IrOp", align 4
  %17 = alloca %"struct.Luau::CodeGen::IrOp", align 4
  %18 = alloca %"struct.Luau::CodeGen::IrOp", align 4
  %19 = alloca %"struct.Luau::CodeGen::IrOp", align 4
  %20 = alloca %"struct.Luau::CodeGen::IrOp", align 4
  %21 = alloca %"struct.Luau::CodeGen::IrOp", align 4
  store ptr %0, ptr %5, align 8, !tbaa !4
  store ptr %1, ptr %6, align 8, !tbaa !9
  store i32 %2, ptr %7, align 4, !tbaa !11
  %22 = zext i1 %3 to i8
  store i8 %22, ptr %8, align 1, !tbaa !113
  call void @llvm.lifetime.start.p0(i64 4, ptr %9) #13
  %23 = load ptr, ptr %6, align 8, !tbaa !9
  %24 = load i32, ptr %23, align 4, !tbaa !11
  %25 = lshr i32 %24, 8
  %26 = and i32 %25, 255
  store i32 %26, ptr %9, align 4, !tbaa !11
  call void @llvm.lifetime.start.p0(i64 4, ptr %10) #13
  %27 = load ptr, ptr %5, align 8, !tbaa !4
  %28 = load i32, ptr %7, align 4, !tbaa !11
  %29 = add nsw i32 %28, 1
  %30 = load ptr, ptr %6, align 8, !tbaa !9
  %31 = load i32, ptr %30, align 4, !tbaa !11
  %32 = ashr i32 %31, 16
  %33 = add nsw i32 %29, %32
  %34 = call i32 @_ZN4Luau7CodeGen9IrBuilder11blockAtInstEj(ptr noundef nonnull align 8 dereferenceable(752) %27, i32 noundef %33)
  %35 = getelementptr inbounds nuw %"struct.Luau::CodeGen::IrOp", ptr %10, i32 0, i32 0
  store i32 %34, ptr %35, align 4
  call void @llvm.lifetime.start.p0(i64 4, ptr %11) #13
  %36 = load ptr, ptr %5, align 8, !tbaa !4
  %37 = load i32, ptr %7, align 4, !tbaa !11
  %38 = add nsw i32 %37, 1
  %39 = call i32 @_ZN4Luau7CodeGen9IrBuilder11blockAtInstEj(ptr noundef nonnull align 8 dereferenceable(752) %36, i32 noundef %38)
  %40 = getelementptr inbounds nuw %"struct.Luau::CodeGen::IrOp", ptr %11, i32 0, i32 0
  store i32 %39, ptr %40, align 4
  %41 = load i8, ptr %8, align 1, !tbaa !113, !range !114, !noundef !115
  %42 = trunc i8 %41 to i1
  br i1 %42, label %43, label %58

43:                                               ; preds = %4
  %44 = load ptr, ptr %5, align 8, !tbaa !4
  %45 = load ptr, ptr %5, align 8, !tbaa !4
  %46 = load i32, ptr %9, align 4, !tbaa !11
  %47 = trunc i32 %46 to i8
  %48 = call i32 @_ZN4Luau7CodeGen9IrBuilder5vmRegEh(ptr noundef nonnull align 8 dereferenceable(752) %45, i8 noundef zeroext %47)
  %49 = getelementptr inbounds nuw %"struct.Luau::CodeGen::IrOp", ptr %12, i32 0, i32 0
  store i32 %48, ptr %49, align 4
  call void @llvm.memcpy.p0.p0.i64(ptr align 4 %13, ptr align 4 %10, i64 4, i1 false), !tbaa.struct !112
  call void @llvm.memcpy.p0.p0.i64(ptr align 4 %14, ptr align 4 %11, i64 4, i1 false), !tbaa.struct !112
  %50 = getelementptr inbounds nuw %"struct.Luau::CodeGen::IrOp", ptr %12, i32 0, i32 0
  %51 = load i32, ptr %50, align 4
  %52 = getelementptr inbounds nuw %"struct.Luau::CodeGen::IrOp", ptr %13, i32 0, i32 0
  %53 = load i32, ptr %52, align 4
  %54 = getelementptr inbounds nuw %"struct.Luau::CodeGen::IrOp", ptr %14, i32 0, i32 0
  %55 = load i32, ptr %54, align 4
  %56 = call i32 @_ZN4Luau7CodeGen9IrBuilder4instENS0_5IrCmdENS0_4IrOpES3_S3_(ptr noundef nonnull align 8 dereferenceable(752) %44, i8 noundef zeroext 48, i32 %51, i32 %53, i32 %55)
  %57 = getelementptr inbounds nuw %"struct.Luau::CodeGen::IrOp", ptr %15, i32 0, i32 0
  store i32 %56, ptr %57, align 4
  br label %73

58:                                               ; preds = %4
  %59 = load ptr, ptr %5, align 8, !tbaa !4
  %60 = load ptr, ptr %5, align 8, !tbaa !4
  %61 = load i32, ptr %9, align 4, !tbaa !11
  %62 = trunc i32 %61 to i8
  %63 = call i32 @_ZN4Luau7CodeGen9IrBuilder5vmRegEh(ptr noundef nonnull align 8 dereferenceable(752) %60, i8 noundef zeroext %62)
  %64 = getelementptr inbounds nuw %"struct.Luau::CodeGen::IrOp", ptr %16, i32 0, i32 0
  store i32 %63, ptr %64, align 4
  call void @llvm.memcpy.p0.p0.i64(ptr align 4 %17, ptr align 4 %10, i64 4, i1 false), !tbaa.struct !112
  call void @llvm.memcpy.p0.p0.i64(ptr align 4 %18, ptr align 4 %11, i64 4, i1 false), !tbaa.struct !112
  %65 = getelementptr inbounds nuw %"struct.Luau::CodeGen::IrOp", ptr %16, i32 0, i32 0
  %66 = load i32, ptr %65, align 4
  %67 = getelementptr inbounds nuw %"struct.Luau::CodeGen::IrOp", ptr %17, i32 0, i32 0
  %68 = load i32, ptr %67, align 4
  %69 = getelementptr inbounds nuw %"struct.Luau::CodeGen::IrOp", ptr %18, i32 0, i32 0
  %70 = load i32, ptr %69, align 4
  %71 = call i32 @_ZN4Luau7CodeGen9IrBuilder4instENS0_5IrCmdENS0_4IrOpES3_S3_(ptr noundef nonnull align 8 dereferenceable(752) %59, i8 noundef zeroext 47, i32 %66, i32 %68, i32 %70)
  %72 = getelementptr inbounds nuw %"struct.Luau::CodeGen::IrOp", ptr %19, i32 0, i32 0
  store i32 %71, ptr %72, align 4
  br label %73

73:                                               ; preds = %58, %43
  %74 = load ptr, ptr %5, align 8, !tbaa !4
  call void @llvm.memcpy.p0.p0.i64(ptr align 4 %20, ptr align 4 %11, i64 4, i1 false), !tbaa.struct !112
  %75 = getelementptr inbounds nuw %"struct.Luau::CodeGen::IrOp", ptr %20, i32 0, i32 0
  %76 = load i32, ptr %75, align 4
  %77 = call noundef zeroext i1 @_ZN4Luau7CodeGen9IrBuilder15isInternalBlockENS0_4IrOpE(ptr noundef nonnull align 8 dereferenceable(752) %74, i32 %76)
  br i1 %77, label %78, label %82

78:                                               ; preds = %73
  %79 = load ptr, ptr %5, align 8, !tbaa !4
  call void @llvm.memcpy.p0.p0.i64(ptr align 4 %21, ptr align 4 %11, i64 4, i1 false), !tbaa.struct !112
  %80 = getelementptr inbounds nuw %"struct.Luau::CodeGen::IrOp", ptr %21, i32 0, i32 0
  %81 = load i32, ptr %80, align 4
  call void @_ZN4Luau7CodeGen9IrBuilder10beginBlockENS0_4IrOpE(ptr noundef nonnull align 8 dereferenceable(752) %79, i32 %81)
  br label %82

82:                                               ; preds = %78, %73
  call void @llvm.lifetime.end.p0(i64 4, ptr %11) #13
  call void @llvm.lifetime.end.p0(i64 4, ptr %10) #13
  call void @llvm.lifetime.end.p0(i64 4, ptr %9) #13
  ret void
}