; Function Attrs: mustprogress uwtable
define dso_local void @_ZN4Luau7CodeGen19translateInstJumpIfERNS0_9IrBuilderEPKjib(ptr noundef nonnull align 8 dereferenceable(752) %0, ptr noundef readonly captures(none) %1, i32 noundef %2, i1 noundef zeroext %3) local_unnamed_addr #0 {
  %5 = load i32, ptr %1, align 4, !tbaa !4
  %6 = lshr i32 %5, 8
  %7 = add nsw i32 %2, 1
  %8 = ashr i32 %5, 16
  %9 = add nsw i32 %8, %7
  %10 = tail call i32 @_ZN4Luau7CodeGen9IrBuilder11blockAtInstEj(ptr noundef nonnull align 8 dereferenceable(752) %0, i32 noundef %9)
  %11 = tail call i32 @_ZN4Luau7CodeGen9IrBuilder11blockAtInstEj(ptr noundef nonnull align 8 dereferenceable(752) %0, i32 noundef %7)
  %12 = trunc i32 %6 to i8
  %13 = tail call i32 @_ZN4Luau7CodeGen9IrBuilder5vmRegEh(ptr noundef nonnull align 8 dereferenceable(752) %0, i8 noundef zeroext %12)
  %. = select i1 %3, i8 48, i8 47
  %14 = tail call i32 @_ZN4Luau7CodeGen9IrBuilder4instENS0_5IrCmdENS0_4IrOpES3_S3_(ptr noundef nonnull align 8 dereferenceable(752) %0, i8 noundef zeroext %., i32 %13, i32 %10, i32 %11)
  %15 = tail call noundef zeroext i1 @_ZN4Luau7CodeGen9IrBuilder15isInternalBlockENS0_4IrOpE(ptr noundef nonnull align 8 dereferenceable(752) %0, i32 %11)
  br i1 %15, label %16, label %17

16:                                               ; preds = %4
  tail call void @_ZN4Luau7CodeGen9IrBuilder10beginBlockENS0_4IrOpE(ptr noundef nonnull align 8 dereferenceable(752) %0, i32 %11)
  br label %17

17:                                               ; preds = %16, %4
  ret void
}